target datalayout = "e-m:e-p270:32:32-p271:32:32-p272:64:64-i64:64-i128:128-f80:128-n8:16:32:64-S128"
target triple = "x86_64-unknown-linux-gnu"

%"class.arrow::Status" = type { ptr }

@.str.10 = private unnamed_addr constant [25 x i8] c"Division by 0 in Decimal\00", align 1
@.str.11 = private unnamed_addr constant [33 x i8] c"Overflow occurred during Decimal\00", align 1
@.str.12 = private unnamed_addr constant [12 x i8] c" operation.\00", align 1
@.str.13 = private unnamed_addr constant [18 x i8] c"Rescaling Decimal\00", align 1
@.str.14 = private unnamed_addr constant [29 x i8] c" value would cause data loss\00", align 1

; Function Attrs: mustprogress nounwind uwtable
define linkonce_odr void @_ZN5arrow6StatusC2Ev(ptr noundef nonnull align 8 dereferenceable(8) %this) unnamed_addr #2 comdat align 2 {
entry:
  %this.addr = alloca ptr, align 8
  store ptr %this, ptr %this.addr, align 8
  %this1 = load ptr, ptr %this.addr, align 8
  %state_ = getelementptr inbounds %"class.arrow::Status", ptr %this1, i32 0, i32 0
  store ptr null, ptr %state_, align 8
  ret void
}

; Function Attrs: mustprogress uwtable
define linkonce_odr void @_ZN5arrow6Status7InvalidIJRA18_KcRiRA29_S2_EEES0_DpOT_(ptr noalias sret(%"class.arrow::Status") align 8 %agg.result, ptr noundef nonnull align 1 dereferenceable(18) %args, ptr noundef nonnull align 4 dereferenceable(4) %args1, ptr noundef nonnull align 1 dereferenceable(29) %args3) #0 comdat align 2 {
entry:
  %result.ptr = alloca ptr, align 8
  %args.addr = alloca ptr, align 8
  %args.addr2 = alloca ptr, align 8
  %args.addr4 = alloca ptr, align 8
  store ptr %agg.result, ptr %result.ptr, align 8
  store ptr %args, ptr %args.addr, align 8
  store ptr %args1, ptr %args.addr2, align 8
  store ptr %args3, ptr %args.addr4, align 8
  %0 = load ptr, ptr %args.addr, align 8
  %1 = load ptr, ptr %args.addr2, align 8
  %2 = load ptr, ptr %args.addr4, align 8
  call void @_ZN5arrow6Status8FromArgsIJRA18_KcRiRA29_S2_EEES0_NS_10StatusCodeEDpOT_(ptr sret(%"class.arrow::Status") align 8 %agg.result, i8 noundef signext 4, ptr noundef nonnull align 1 dereferenceable(18) %0, ptr noundef nonnull align 4 dereferenceable(4) %1, ptr noundef nonnull align 1 dereferenceable(29) %2)
  ret void
}

; Function Attrs: mustprogress uwtable
define linkonce_odr void @_ZN5arrow6Status7InvalidIJRA33_KcRiRA12_S2_EEES0_DpOT_(ptr noalias sret(%"class.arrow::Status") align 8 %agg.result, ptr noundef nonnull align 1 dereferenceable(33) %args, ptr noundef nonnull align 4 dereferenceable(4) %args1, ptr noundef nonnull align 1 dereferenceable(12) %args3) #0 comdat align 2 {
entry:
  %result.ptr = alloca ptr, align 8
  %args.addr = alloca ptr, align 8
  %args.addr2 = alloca ptr, align 8
  %args.addr4 = alloca ptr, align 8
  store ptr %agg.result, ptr %result.ptr, align 8
  store ptr %args, ptr %args.addr, align 8
  store ptr %args1, ptr %args.addr2, align 8
  store ptr %args3, ptr %args.addr4, align 8
  %0 = load ptr, ptr %args.addr, align 8
  %1 = load ptr, ptr %args.addr2, align 8
  %2 = load ptr, ptr %args.addr4, align 8
  call void @_ZN5arrow6Status8FromArgsIJRA33_KcRiRA12_S2_EEES0_NS_10StatusCodeEDpOT_(ptr sret(%"class.arrow::Status") align 8 %agg.result, i8 noundef signext 4, ptr noundef nonnull align 1 dereferenceable(33) %0, ptr noundef nonnull align 4 dereferenceable(4) %1, ptr noundef nonnull align 1 dereferenceable(12) %2)
  ret void
}

; Function Attrs: mustprogress uwtable
define linkonce_odr void @_ZN5arrow6Status7InvalidIJRA25_KcRiEEES0_DpOT_(ptr noalias sret(%"class.arrow::Status") align 8 %agg.result, ptr noundef nonnull align 1 dereferenceable(25) %args, ptr noundef nonnull align 4 dereferenceable(4) %args1) #0 comdat align 2 {
entry:
  %result.ptr = alloca ptr, align 8
  %args.addr = alloca ptr, align 8
  %args.addr2 = alloca ptr, align 8
  store ptr %agg.result, ptr %result.ptr, align 8
  store ptr %args, ptr %args.addr, align 8
  store ptr %args1, ptr %args.addr2, align 8
  %0 = load ptr, ptr %args.addr, align 8
  %1 = load ptr, ptr %args.addr2, align 8
  call void @_ZN5arrow6Status8FromArgsIJRA25_KcRiEEES0_NS_10StatusCodeEDpOT_(ptr sret(%"class.arrow::Status") align 8 %agg.result, i8 noundef signext 4, ptr noundef nonnull align 1 dereferenceable(25) %0, ptr noundef nonnull align 4 dereferenceable(4) %1)
  ret void
}

; Function Attrs: mustprogress nounwind uwtable
define linkonce_odr void @_ZN5arrow6Status2OKEv(ptr noalias sret(%"class.arrow::Status") align 8 %agg.result) #2 comdat align 2 {
entry:
  %result.ptr = alloca ptr, align 8
  store ptr %agg.result, ptr %result.ptr, align 8
  call void @_ZN5arrow6StatusC2Ev(ptr noundef nonnull align 8 dereferenceable(8) %agg.result) #12
  ret void
}

; Function Attrs: mustprogress uwtable
define internal void @_ZN5arrow12_GLOBAL__N_113ToArrowStatusENS_13DecimalStatusEi(ptr noalias sret(%"class.arrow::Status") align 8 %agg.result, i32 noundef %dstatus, i32 noundef %num_bits) #0 {
entry:
  %result.ptr = alloca ptr, align 8
  %dstatus.addr = alloca i32, align 4
  %num_bits.addr = alloca i32, align 4
  store ptr %agg.result, ptr %result.ptr, align 8
  store i32 %dstatus, ptr %dstatus.addr, align 4
  store i32 %num_bits, ptr %num_bits.addr, align 4
  %0 = load i32, ptr %dstatus.addr, align 4
  switch i32 %0, label %sw.epilog [
    i32 0, label %sw.bb
    i32 1, label %sw.bb1
    i32 2, label %sw.bb2
    i32 3, label %sw.bb3
  ]

sw.bb:                                            ; preds = %entry
  call void @_ZN5arrow6Status2OKEv(ptr sret(%"class.arrow::Status") align 8 %agg.result)
  br label %return

sw.bb1:                                           ; preds = %entry
  call void @_ZN5arrow6Status7InvalidIJRA25_KcRiEEES0_DpOT_(ptr sret(%"class.arrow::Status") align 8 %agg.result, ptr noundef nonnull align 1 dereferenceable(25) @.str.10, ptr noundef nonnull align 4 dereferenceable(4) %num_bits.addr)
  br label %return

sw.bb2:                                           ; preds = %entry
  call void @_ZN5arrow6Status7InvalidIJRA33_KcRiRA12_S2_EEES0_DpOT_(ptr sret(%"class.arrow::Status") align 8 %agg.result, ptr noundef nonnull align 1 dereferenceable(33) @.str.11, ptr noundef nonnull align 4 dereferenceable(4) %num_bits.addr, ptr noundef nonnull align 1 dereferenceable(12) @.str.12)
  br label %return

sw.bb3:                                           ; preds = %entry
  call void @_ZN5arrow6Status7InvalidIJRA18_KcRiRA29_S2_EEES0_DpOT_(ptr sret(%"class.arrow::Status") align 8 %agg.result, ptr noundef nonnull align 1 dereferenceable(18) @.str.13, ptr noundef nonnull align 4 dereferenceable(4) %num_bits.addr, ptr noundef nonnull align 1 dereferenceable(29) @.str.14)
  br label %return

sw.epilog:                                        ; preds = %entry
  call void @_ZN5arrow6Status2OKEv(ptr sret(%"class.arrow::Status") align 8 %agg.result)
  br label %return

return:                                           ; preds = %sw.epilog, %sw.bb3, %sw.bb2, %sw.bb1, %sw.bb
  ret void
}

; Function Attrs: mustprogress uwtable
define void @_ZNK5arrow10Decimal25613ToArrowStatusENS_13DecimalStatusE(ptr noalias sret(%"class.arrow::Status") align 8 %agg.result, ptr noundef nonnull align 8 dereferenceable(32) %this, i32 noundef %dstatus) #0 align 2 {
entry:
  %result.ptr = alloca ptr, align 8
  %this.addr = alloca ptr, align 8
  %dstatus.addr = alloca i32, align 4
  store ptr %agg.result, ptr %result.ptr, align 8
  store ptr %this, ptr %this.addr, align 8
  store i32 %dstatus, ptr %dstatus.addr, align 4
  %0 = load i32, ptr %dstatus.addr, align 4
  call void @_ZN5arrow12_GLOBAL__N_113ToArrowStatusENS_13DecimalStatusEi(ptr sret(%"class.arrow::Status") align 8 %agg.result, i32 noundef %0, i32 noundef 256)
  ret void
}