; Function Attrs: mustprogress uwtable
define void @_ZNK5arrow10Decimal25613ToArrowStatusENS_13DecimalStatusE(ptr noalias sret(%"class.arrow::Status") align 8 %agg.result, ptr nocapture noundef nonnull readnone align 8 dereferenceable(32) %this, i32 noundef %dstatus) local_unnamed_addr #0 align 2 {
entry:
  %num_bits.addr.i = alloca i32, align 4
  tail call void @llvm.experimental.noalias.scope.decl(metadata !118)
  call void @llvm.lifetime.start.p0(i64 4, ptr nonnull %num_bits.addr.i)
  store i32 256, ptr %num_bits.addr.i, align 4, !noalias !118
  switch i32 %dstatus, label %sw.epilog.i [
    i32 0, label %sw.bb.i
    i32 1, label %sw.bb1.i
    i32 2, label %sw.bb2.i
    i32 3, label %sw.bb3.i
  ]

sw.bb.i:                                          ; preds = %entry
  store ptr null, ptr %agg.result, align 8, !alias.scope !121
  br label %_ZN5arrow12_GLOBAL__N_113ToArrowStatusENS_13DecimalStatusEi.exit

sw.bb1.i:                                         ; preds = %entry
  call void @_ZN5arrow6Status8FromArgsIJRA25_KcRiEEES0_NS_10StatusCodeEDpOT_(ptr sret(%"class.arrow::Status") align 8 %agg.result, i8 noundef signext 4, ptr noundef nonnull align 1 dereferenceable(25) @.str.10, ptr noundef nonnull align 4 dereferenceable(4) %num_bits.addr.i)
  br label %_ZN5arrow12_GLOBAL__N_113ToArrowStatusENS_13DecimalStatusEi.exit

sw.bb2.i:                                         ; preds = %entry
  call void @_ZN5arrow6Status8FromArgsIJRA33_KcRiRA12_S2_EEES0_NS_10StatusCodeEDpOT_(ptr sret(%"class.arrow::Status") align 8 %agg.result, i8 noundef signext 4, ptr noundef nonnull align 1 dereferenceable(33) @.str.11, ptr noundef nonnull align 4 dereferenceable(4) %num_bits.addr.i, ptr noundef nonnull align 1 dereferenceable(12) @.str.12)
  br label %_ZN5arrow12_GLOBAL__N_113ToArrowStatusENS_13DecimalStatusEi.exit

sw.bb3.i:                                         ; preds = %entry
  call void @_ZN5arrow6Status8FromArgsIJRA18_KcRiRA29_S2_EEES0_NS_10StatusCodeEDpOT_(ptr sret(%"class.arrow::Status") align 8 %agg.result, i8 noundef signext 4, ptr noundef nonnull align 1 dereferenceable(18) @.str.13, ptr noundef nonnull align 4 dereferenceable(4) %num_bits.addr.i, ptr noundef nonnull align 1 dereferenceable(29) @.str.14)
  br label %_ZN5arrow12_GLOBAL__N_113ToArrowStatusENS_13DecimalStatusEi.exit

sw.epilog.i:                                      ; preds = %entry
  store ptr null, ptr %agg.result, align 8, !alias.scope !124
  br label %_ZN5arrow12_GLOBAL__N_113ToArrowStatusENS_13DecimalStatusEi.exit

_ZN5arrow12_GLOBAL__N_113ToArrowStatusENS_13DecimalStatusEi.exit: ; preds = %sw.bb.i, %sw.bb1.i, %sw.bb2.i, %sw.bb3.i, %sw.epilog.i
  call void @llvm.lifetime.end.p0(i64 4, ptr nonnull %num_bits.addr.i)
  ret void
}